target datalayout = "e-m:e-p270:32:32-p271:32:32-p272:64:64-i64:64-i128:128-f80:128-n8:16:32:64-S128"
target triple = "x86_64-pc-linux-gnu"

%struct._zend_refcounted_h = type { i32, %union.anon }
%union.anon = type { i32 }
%struct._zval_struct = type { %union._zend_value, %union.anon.3, %union.anon.6 }
%union._zend_value = type { i64 }
%union.anon.3 = type { i32 }
%union.anon.6 = type { i32 }
%struct._php_hash_ops = type { ptr, ptr, ptr, ptr, ptr, ptr, ptr, ptr, i64, i64, i64, i8 }
%struct._php_hashcontext_object = type { ptr, ptr, i64, ptr, %struct._zend_object }
%struct._zend_object = type { %struct._zend_refcounted_h, i32, i32, ptr, ptr, ptr, [1 x %struct._zval_struct] }

; Function Attrs: nounwind uwtable
define dso_local i32 @php_hash_unserialize(ptr noundef %0, i64 noundef %1, ptr noundef %2) #0 {
  %4 = alloca i32, align 4
  %5 = alloca ptr, align 8
  %6 = alloca i64, align 8
  %7 = alloca ptr, align 8
  store ptr %0, ptr %5, align 8, !tbaa !24
  store i64 %1, ptr %6, align 8, !tbaa !18
  store ptr %2, ptr %7, align 8, !tbaa !13
  %8 = load ptr, ptr %5, align 8, !tbaa !24
  %9 = getelementptr inbounds nuw %struct._php_hashcontext_object, ptr %8, i32 0, i32 0
  %10 = load ptr, ptr %9, align 8, !tbaa !32
  %11 = getelementptr inbounds nuw %struct._php_hash_ops, ptr %10, i32 0, i32 7
  %12 = load ptr, ptr %11, align 8, !tbaa !50
  %13 = icmp ne ptr %12, null
  br i1 %13, label %14, label %26

14:                                               ; preds = %3
  %15 = load i64, ptr %6, align 8, !tbaa !18
  %16 = icmp eq i64 %15, 2
  br i1 %16, label %17, label %26

17:                                               ; preds = %14
  %18 = load ptr, ptr %5, align 8, !tbaa !24
  %19 = load ptr, ptr %7, align 8, !tbaa !13
  %20 = load ptr, ptr %5, align 8, !tbaa !24
  %21 = getelementptr inbounds nuw %struct._php_hashcontext_object, ptr %20, i32 0, i32 0
  %22 = load ptr, ptr %21, align 8, !tbaa !32
  %23 = getelementptr inbounds nuw %struct._php_hash_ops, ptr %22, i32 0, i32 7
  %24 = load ptr, ptr %23, align 8, !tbaa !50
  %25 = call i32 @php_hash_unserialize_spec(ptr noundef %18, ptr noundef %19, ptr noundef %24)
  store i32 %25, ptr %4, align 4
  br label %27

26:                                               ; preds = %14, %3
  store i32 -1, ptr %4, align 4
  br label %27

27:                                               ; preds = %26, %17
  %28 = load i32, ptr %4, align 4
  ret i32 %28
}