; Function Attrs: nounwind uwtable
define dso_local i32 @php_hash_unserialize(ptr noundef readonly captures(none) %0, i64 noundef %1, ptr noundef readonly captures(none) %2) local_unnamed_addr #0 {
  %4 = load ptr, ptr %0, align 8, !tbaa !26
  %5 = getelementptr inbounds nuw i8, ptr %4, i64 56
  %6 = load ptr, ptr %5, align 8, !tbaa !35
  %7 = icmp ne ptr %6, null
  %8 = icmp eq i64 %1, 2
  %or.cond = and i1 %8, %7
  br i1 %or.cond, label %9, label %11

9:                                                ; preds = %3
  %10 = tail call i32 @php_hash_unserialize_spec(ptr noundef nonnull %0, ptr noundef %2, ptr noundef nonnull %6)
  br label %11

11:                                               ; preds = %3, %9
  %.0 = phi i32 [ %10, %9 ], [ -1, %3 ]
  ret i32 %.0
}